target datalayout = "e-m:e-p270:32:32-p271:32:32-p272:64:64-i64:64-i128:128-f80:128-n8:16:32:64-S128"
target triple = "x86_64-pc-linux-gnu"

%"class.pxrInternal_v0_24__pxrReserved__::UsdTimeCode" = type { double }

; Function Attrs: mustprogress nounwind uwtable
define linkonce_odr noundef zeroext i1 @_ZSt5isnand(double noundef %0) #1 comdat {
  %2 = alloca double, align 8
  store double %0, ptr %2, align 8
  %3 = load double, ptr %2, align 8
  %4 = call i1 @llvm.is.fpclass.f64(double %3, i32 3)
  ret i1 %4
}

; Function Attrs: mustprogress uwtable
define linkonce_odr noundef zeroext i1 @_ZNK32pxrInternal_v0_24__pxrReserved__11UsdTimeCode9IsDefaultEv(ptr noundef nonnull align 8 dereferenceable(8) %0) #0 comdat align 2 {
  %2 = alloca ptr, align 8
  store ptr %0, ptr %2, align 8
  %3 = load ptr, ptr %2, align 8
  %4 = getelementptr inbounds nuw %"class.pxrInternal_v0_24__pxrReserved__::UsdTimeCode", ptr %3, i32 0, i32 0
  %5 = load double, ptr %4, align 8
  %6 = call noundef zeroext i1 @_ZSt5isnand(double noundef %5)
  ret i1 %6
}

; Function Attrs: mustprogress uwtable
define linkonce_odr noundef double @_ZNK32pxrInternal_v0_24__pxrReserved__11UsdTimeCode8GetValueEv(ptr noundef nonnull align 8 dereferenceable(8) %0) #0 comdat align 2 {
  %2 = alloca ptr, align 8
  store ptr %0, ptr %2, align 8
  %3 = load ptr, ptr %2, align 8
  %4 = call noundef zeroext i1 @_ZNK32pxrInternal_v0_24__pxrReserved__11UsdTimeCode9IsDefaultEv(ptr noundef nonnull align 8 dereferenceable(8) %3)
  br i1 %4, label %5, label %6

5:                                                ; preds = %1
  call void @_ZNK32pxrInternal_v0_24__pxrReserved__11UsdTimeCode28_IssueGetValueOnDefaultErrorEv(ptr noundef nonnull align 8 dereferenceable(8) %3)
  br label %6

6:                                                ; preds = %5, %1
  %7 = getelementptr inbounds nuw %"class.pxrInternal_v0_24__pxrReserved__::UsdTimeCode", ptr %3, i32 0, i32 0
  %8 = load double, ptr %7, align 8
  ret double %8
}

; Function Attrs: mustprogress uwtable
define noundef double @_ZN32pxrInternal_v0_24__pxrReserved__26UsdGeom_CalculateTimeDeltaENS_11UsdTimeCodeES0_d(double %0, double %1, double noundef %2) #0 {
  %4 = alloca %"class.pxrInternal_v0_24__pxrReserved__::UsdTimeCode", align 8
  %5 = alloca %"class.pxrInternal_v0_24__pxrReserved__::UsdTimeCode", align 8
  %6 = alloca double, align 8
  %7 = getelementptr inbounds nuw %"class.pxrInternal_v0_24__pxrReserved__::UsdTimeCode", ptr %4, i32 0, i32 0
  store double %0, ptr %7, align 8
  %8 = getelementptr inbounds nuw %"class.pxrInternal_v0_24__pxrReserved__::UsdTimeCode", ptr %5, i32 0, i32 0
  store double %1, ptr %8, align 8
  store double %2, ptr %6, align 8
  %9 = call noundef double @_ZNK32pxrInternal_v0_24__pxrReserved__11UsdTimeCode8GetValueEv(ptr noundef nonnull align 8 dereferenceable(8) %4)
  %10 = call noundef double @_ZNK32pxrInternal_v0_24__pxrReserved__11UsdTimeCode8GetValueEv(ptr noundef nonnull align 8 dereferenceable(8) %5)
  %11 = fsub double %9, %10
  %12 = load double, ptr %6, align 8
  %13 = fdiv double %11, %12
  ret double %13
}