; Function Attrs: mustprogress uwtable
define noundef double @_ZN32pxrInternal_v0_24__pxrReserved__26UsdGeom_CalculateTimeDeltaENS_11UsdTimeCodeES0_d(double %0, double %1, double noundef %2) local_unnamed_addr #0 {
  %4 = alloca %"class.pxrInternal_v0_24__pxrReserved__::UsdTimeCode", align 8
  %5 = alloca %"class.pxrInternal_v0_24__pxrReserved__::UsdTimeCode", align 8
  store double %0, ptr %4, align 8
  store double %1, ptr %5, align 8
  %6 = fcmp uno double %0, 0.000000e+00
  br i1 %6, label %7, label %_ZNK32pxrInternal_v0_24__pxrReserved__11UsdTimeCode8GetValueEv.exit

7:                                                ; preds = %3
  call void @_ZNK32pxrInternal_v0_24__pxrReserved__11UsdTimeCode28_IssueGetValueOnDefaultErrorEv(ptr noundef nonnull align 8 dereferenceable(8) %4)
  %.pre.i = load double, ptr %4, align 8
  br label %_ZNK32pxrInternal_v0_24__pxrReserved__11UsdTimeCode8GetValueEv.exit

_ZNK32pxrInternal_v0_24__pxrReserved__11UsdTimeCode8GetValueEv.exit: ; preds = %3, %7
  %8 = phi double [ %0, %3 ], [ %.pre.i, %7 ]
  %9 = fcmp uno double %1, 0.000000e+00
  br i1 %9, label %10, label %_ZNK32pxrInternal_v0_24__pxrReserved__11UsdTimeCode8GetValueEv.exit2

10:                                               ; preds = %_ZNK32pxrInternal_v0_24__pxrReserved__11UsdTimeCode8GetValueEv.exit
  call void @_ZNK32pxrInternal_v0_24__pxrReserved__11UsdTimeCode28_IssueGetValueOnDefaultErrorEv(ptr noundef nonnull align 8 dereferenceable(8) %5)
  %.pre.i1 = load double, ptr %5, align 8
  br label %_ZNK32pxrInternal_v0_24__pxrReserved__11UsdTimeCode8GetValueEv.exit2

_ZNK32pxrInternal_v0_24__pxrReserved__11UsdTimeCode8GetValueEv.exit2: ; preds = %_ZNK32pxrInternal_v0_24__pxrReserved__11UsdTimeCode8GetValueEv.exit, %10
  %11 = phi double [ %.pre.i1, %10 ], [ %1, %_ZNK32pxrInternal_v0_24__pxrReserved__11UsdTimeCode8GetValueEv.exit ]
  %12 = fsub double %8, %11
  %13 = fdiv double %12, %2
  ret double %13
}